target datalayout = "e-m:e-p270:32:32-p271:32:32-p272:64:64-i64:64-i128:128-f80:128-n8:16:32:64-S128"
target triple = "x86_64-pc-linux-gnu"

%struct.AVFilterContext = type { ptr, ptr, ptr, ptr, ptr, i32, ptr, ptr, i32, ptr, ptr, i32, i32, ptr, ptr, ptr, ptr, i32, ptr, i32, i32 }
%struct.ColorSpaceContext = type { ptr, %struct.ColorSpaceDSPContext, i32, i32, i32, i32, i32, i32, i32, i32, i32, i32, i32, i32, i32, i32, i32, i32, i32, i32, i32, i32, i32, i32, i32, [3 x ptr], i64, i32, [3 x [2 x ptr]], [3 x [2 x ptr]], ptr, ptr, i32, [4 x i8], [3 x [3 x [8 x i16]]], ptr, ptr, i32, ptr, ptr, ptr, ptr, i32, i32, [3 x [3 x [8 x i16]]], [3 x [3 x [8 x i16]]], [3 x [3 x [8 x i16]]], [2 x [8 x i16]], ptr, ptr, ptr, ptr, [3 x [3 x double]], [3 x [3 x double]], i32, i32, i32, i32, i32, [12 x i8] }
%struct.ColorSpaceDSPContext = type { [3 x [3 x ptr]], [3 x [3 x ptr]], [3 x [3 x ptr]], [3 x [3 x [3 x ptr]]], ptr }

@.str.7 = private unnamed_addr constant [38 x i8] c"Unsupported output color property %d\0A\00", align 1
@default_csp = internal constant [10 x i32] [i32 2, i32 6, i32 5, i32 6, i32 5, i32 1, i32 6, i32 7, i32 9, i32 2], align 16
@.str.98 = private unnamed_addr constant [34 x i8] c"Please specify output colorspace\0A\00", align 1
@.str.99 = private unnamed_addr constant [39 x i8] c"Unsupported output colorspace %d (%s)\0A\00", align 1

; Function Attrs: cold nounwind optsize uwtable
define internal i32 @init(ptr noundef %0) #0 {
  %2 = alloca i32, align 4
  %3 = alloca ptr, align 8
  %4 = alloca ptr, align 8
  %5 = alloca i32, align 4
  store ptr %0, ptr %3, align 8, !tbaa !4
  call void @llvm.lifetime.start.p0(i64 8, ptr %4) #9
  %6 = load ptr, ptr %3, align 8, !tbaa !4
  %7 = getelementptr inbounds nuw %struct.AVFilterContext, ptr %6, i32 0, i32 9
  %8 = load ptr, ptr %7, align 8, !tbaa !9
  store ptr %8, ptr %4, align 8, !tbaa !22
  %9 = load ptr, ptr %4, align 8, !tbaa !22
  %10 = getelementptr inbounds nuw %struct.ColorSpaceContext, ptr %9, i32 0, i32 6
  %11 = load i32, ptr %10, align 16, !tbaa !24
  %12 = icmp eq i32 %11, 2
  br i1 %12, label %13, label %28

13:                                               ; preds = %1
  %14 = load ptr, ptr %4, align 8, !tbaa !22
  %15 = getelementptr inbounds nuw %struct.ColorSpaceContext, ptr %14, i32 0, i32 2
  %16 = load i32, ptr %15, align 16, !tbaa !32
  %17 = icmp ugt i32 %16, 9
  br i1 %17, label %18, label %19

18:                                               ; preds = %13
  br label %23

19:                                               ; preds = %13
  %20 = load ptr, ptr %4, align 8, !tbaa !22
  %21 = getelementptr inbounds nuw %struct.ColorSpaceContext, ptr %20, i32 0, i32 2
  %22 = load i32, ptr %21, align 16, !tbaa !32
  br label %23

23:                                               ; preds = %19, %18
  %24 = phi i32 [ 9, %18 ], [ %22, %19 ]
  %25 = zext i32 %24 to i64
  %26 = getelementptr inbounds nuw [10 x i32], ptr @default_csp, i64 0, i64 %25
  %27 = load i32, ptr %26, align 4, !tbaa !33
  br label %32

28:                                               ; preds = %1
  %29 = load ptr, ptr %4, align 8, !tbaa !22
  %30 = getelementptr inbounds nuw %struct.ColorSpaceContext, ptr %29, i32 0, i32 6
  %31 = load i32, ptr %30, align 16, !tbaa !24
  br label %32

32:                                               ; preds = %28, %23
  %33 = phi i32 [ %27, %23 ], [ %31, %28 ]
  %34 = load ptr, ptr %4, align 8, !tbaa !22
  %35 = getelementptr inbounds nuw %struct.ColorSpaceContext, ptr %34, i32 0, i32 5
  store i32 %33, ptr %35, align 4, !tbaa !34
  %36 = load ptr, ptr %4, align 8, !tbaa !22
  %37 = getelementptr inbounds nuw %struct.ColorSpaceContext, ptr %36, i32 0, i32 5
  %38 = load i32, ptr %37, align 4, !tbaa !34
  %39 = call ptr @av_csp_luma_coeffs_from_avcsp(i32 noundef %38)
  %40 = load ptr, ptr %4, align 8, !tbaa !22
  %41 = getelementptr inbounds nuw %struct.ColorSpaceContext, ptr %40, i32 0, i32 41
  store ptr %39, ptr %41, align 16, !tbaa !35
  %42 = load ptr, ptr %4, align 8, !tbaa !22
  %43 = getelementptr inbounds nuw %struct.ColorSpaceContext, ptr %42, i32 0, i32 41
  %44 = load ptr, ptr %43, align 16, !tbaa !35
  %45 = icmp ne ptr %44, null
  br i1 %45, label %74, label %46

46:                                               ; preds = %32
  %47 = load ptr, ptr %4, align 8, !tbaa !22
  %48 = getelementptr inbounds nuw %struct.ColorSpaceContext, ptr %47, i32 0, i32 5
  %49 = load i32, ptr %48, align 4, !tbaa !34
  %50 = icmp eq i32 %49, 2
  br i1 %50, label %51, label %64

51:                                               ; preds = %46
  %52 = load ptr, ptr %4, align 8, !tbaa !22
  %53 = getelementptr inbounds nuw %struct.ColorSpaceContext, ptr %52, i32 0, i32 2
  %54 = load i32, ptr %53, align 16, !tbaa !32
  %55 = icmp eq i32 %54, 0
  br i1 %55, label %56, label %58

56:                                               ; preds = %51
  %57 = load ptr, ptr %3, align 8, !tbaa !4
  call void (ptr, i32, ptr, ...) @av_log(ptr noundef %57, i32 noundef 16, ptr noundef @.str.98)
  br label %63

58:                                               ; preds = %51
  %59 = load ptr, ptr %3, align 8, !tbaa !4
  %60 = load ptr, ptr %4, align 8, !tbaa !22
  %61 = getelementptr inbounds nuw %struct.ColorSpaceContext, ptr %60, i32 0, i32 2
  %62 = load i32, ptr %61, align 16, !tbaa !32
  call void (ptr, i32, ptr, ...) @av_log(ptr noundef %59, i32 noundef 16, ptr noundef @.str.7, i32 noundef %62)
  br label %63

63:                                               ; preds = %58, %56
  br label %73

64:                                               ; preds = %46
  %65 = load ptr, ptr %3, align 8, !tbaa !4
  %66 = load ptr, ptr %4, align 8, !tbaa !22
  %67 = getelementptr inbounds nuw %struct.ColorSpaceContext, ptr %66, i32 0, i32 5
  %68 = load i32, ptr %67, align 4, !tbaa !34
  %69 = load ptr, ptr %4, align 8, !tbaa !22
  %70 = getelementptr inbounds nuw %struct.ColorSpaceContext, ptr %69, i32 0, i32 5
  %71 = load i32, ptr %70, align 4, !tbaa !34
  %72 = call ptr @av_color_space_name(i32 noundef %71)
  call void (ptr, i32, ptr, ...) @av_log(ptr noundef %65, i32 noundef 16, ptr noundef @.str.99, i32 noundef %68, ptr noundef %72)
  br label %73

73:                                               ; preds = %64, %63
  store i32 -22, ptr %2, align 4
  store i32 1, ptr %5, align 4
  br label %77

74:                                               ; preds = %32
  %75 = load ptr, ptr %4, align 8, !tbaa !22
  %76 = getelementptr inbounds nuw %struct.ColorSpaceContext, ptr %75, i32 0, i32 1
  call void @ff_colorspacedsp_init(ptr noundef %76)
  store i32 0, ptr %2, align 4
  store i32 1, ptr %5, align 4
  br label %77

77:                                               ; preds = %74, %73
  call void @llvm.lifetime.end.p0(i64 8, ptr %4) #9
  %78 = load i32, ptr %2, align 4
  ret i32 %78
}