; Function Attrs: cold nounwind optsize uwtable
define internal range(i32 -22, 1) i32 @init(ptr noundef %0) #0 {
  %2 = getelementptr inbounds nuw i8, ptr %0, i64 72
  %3 = load ptr, ptr %2, align 8, !tbaa !4
  %4 = getelementptr inbounds nuw i8, ptr %3, i64 464
  %5 = load i32, ptr %4, align 16, !tbaa !20
  %6 = icmp eq i32 %5, 2
  br i1 %6, label %7, label %12

7:                                                ; preds = %1
  %8 = getelementptr inbounds nuw i8, ptr %3, i64 448
  %9 = load i32, ptr %8, align 16, !tbaa !28
  %narrow = tail call i32 @llvm.umin.i32(i32 %9, i32 9)
  %spec.select = zext nneg i32 %narrow to i64
  %10 = getelementptr inbounds nuw [10 x i32], ptr @default_csp, i64 0, i64 %spec.select
  %11 = load i32, ptr %10, align 4, !tbaa !29
  br label %12

12:                                               ; preds = %1, %7
  %13 = phi i32 [ %11, %7 ], [ %5, %1 ]
  %14 = getelementptr inbounds nuw i8, ptr %3, i64 460
  store i32 %13, ptr %14, align 4, !tbaa !30
  %15 = tail call ptr @av_csp_luma_coeffs_from_avcsp(i32 noundef %13) #9
  %16 = getelementptr inbounds nuw i8, ptr %3, i64 896
  store ptr %15, ptr %16, align 16, !tbaa !31
  %.not = icmp eq ptr %15, null
  br i1 %.not, label %17, label %28

17:                                               ; preds = %12
  %18 = load i32, ptr %14, align 4, !tbaa !30
  %19 = icmp eq i32 %18, 2
  br i1 %19, label %20, label %26

20:                                               ; preds = %17
  %21 = getelementptr inbounds nuw i8, ptr %3, i64 448
  %22 = load i32, ptr %21, align 16, !tbaa !28
  %23 = icmp eq i32 %22, 0
  br i1 %23, label %24, label %25

24:                                               ; preds = %20
  tail call void (ptr, i32, ptr, ...) @av_log(ptr noundef nonnull %0, i32 noundef 16, ptr noundef nonnull @.str.98) #9
  br label %30

25:                                               ; preds = %20
  tail call void (ptr, i32, ptr, ...) @av_log(ptr noundef nonnull %0, i32 noundef 16, ptr noundef nonnull @.str.7, i32 noundef %22) #9
  br label %30

26:                                               ; preds = %17
  %27 = tail call ptr @av_color_space_name(i32 noundef %18) #9
  tail call void (ptr, i32, ptr, ...) @av_log(ptr noundef nonnull %0, i32 noundef 16, ptr noundef nonnull @.str.99, i32 noundef %18, ptr noundef %27) #9
  br label %30

28:                                               ; preds = %12
  %29 = getelementptr inbounds nuw i8, ptr %3, i64 8
  tail call void @ff_colorspacedsp_init(ptr noundef nonnull %29) #9
  br label %30

30:                                               ; preds = %26, %25, %24, %28
  %.0 = phi i32 [ 0, %28 ], [ -22, %24 ], [ -22, %25 ], [ -22, %26 ]
  ret i32 %.0
}